; Function Attrs: mustprogress nofree nounwind uwtable
define hidden void @_ZN25G1CollectionCandidateList18sort_by_efficiencyEv(ptr nocapture noundef nonnull readonly align 8 dereferenceable(24) %0) local_unnamed_addr #2 align 2 {
  %2 = getelementptr inbounds i8, ptr %0, i64 8
  %3 = load ptr, ptr %2, align 8
  %4 = icmp eq ptr %3, null
  br i1 %4, label %_ZN17GrowableArrayViewI28G1CollectionSetCandidateInfoE4sortEPFiPS0_S2_E.exit, label %5

5:                                                ; preds = %1
  %6 = load i32, ptr %0, align 8
  %7 = sext i32 %6 to i64
  tail call void @qsort(ptr noundef nonnull %3, i64 noundef %7, i64 noundef 24, ptr noundef nonnull @_ZN25G1CollectionCandidateList21compare_gc_efficiencyEP28G1CollectionSetCandidateInfoS1_) #17
  br label %_ZN17GrowableArrayViewI28G1CollectionSetCandidateInfoE4sortEPFiPS0_S2_E.exit

_ZN17GrowableArrayViewI28G1CollectionSetCandidateInfoE4sortEPFiPS0_S2_E.exit: ; preds = %1, %5
  ret void
}